target datalayout = "e-m:e-p270:32:32-p271:32:32-p272:64:64-i64:64-i128:128-f80:128-n8:16:32:64-S128"
target triple = "x86_64-pc-linux-gnu"

%"class.std::vector.3" = type { %"struct.std::_Vector_base.4" }
%"struct.std::_Vector_base.4" = type { %"struct.std::_Vector_base<int, std::allocator<int>>::_Vector_impl" }
%"struct.std::_Vector_base<int, std::allocator<int>>::_Vector_impl" = type { %"struct.std::_Vector_base<int, std::allocator<int>>::_Vector_impl_data" }
%"struct.std::_Vector_base<int, std::allocator<int>>::_Vector_impl_data" = type { ptr, ptr, ptr }
%"struct.std::_Vector_base.226" = type { %"struct.std::_Vector_base<(anonymous namespace)::MemConfig, std::allocator<(anonymous namespace)::MemConfig>>::_Vector_impl" }
%"struct.std::_Vector_base<(anonymous namespace)::MemConfig, std::allocator<(anonymous namespace)::MemConfig>>::_Vector_impl" = type { %"struct.std::_Vector_base<(anonymous namespace)::MemConfig, std::allocator<(anonymous namespace)::MemConfig>>::_Vector_impl_data" }
%"struct.std::_Vector_base<(anonymous namespace)::MemConfig, std::allocator<(anonymous namespace)::MemConfig>>::_Vector_impl_data" = type { ptr, ptr, ptr }
%"struct.(anonymous namespace)::MemConfig" = type { ptr, %"class.std::vector.244", %"class.std::vector.249", %"class.std::vector.254", i8, i32, i32, %"class.std::vector.3", i32, i32, i32, i32, i32, i32, i32, double }
%"class.std::vector.244" = type { %"struct.std::_Vector_base.245" }
%"struct.std::_Vector_base.245" = type { %"struct.std::_Vector_base<(anonymous namespace)::WrPortConfig, std::allocator<(anonymous namespace)::WrPortConfig>>::_Vector_impl" }
%"struct.std::_Vector_base<(anonymous namespace)::WrPortConfig, std::allocator<(anonymous namespace)::WrPortConfig>>::_Vector_impl" = type { %"struct.std::_Vector_base<(anonymous namespace)::WrPortConfig, std::allocator<(anonymous namespace)::WrPortConfig>>::_Vector_impl_data" }
%"struct.std::_Vector_base<(anonymous namespace)::WrPortConfig, std::allocator<(anonymous namespace)::WrPortConfig>>::_Vector_impl_data" = type { ptr, ptr, ptr }
%"class.std::vector.249" = type { %"struct.std::_Vector_base.250" }
%"struct.std::_Vector_base.250" = type { %"struct.std::_Vector_base<(anonymous namespace)::RdPortConfig, std::allocator<(anonymous namespace)::RdPortConfig>>::_Vector_impl" }
%"struct.std::_Vector_base<(anonymous namespace)::RdPortConfig, std::allocator<(anonymous namespace)::RdPortConfig>>::_Vector_impl" = type { %"struct.std::_Vector_base<(anonymous namespace)::RdPortConfig, std::allocator<(anonymous namespace)::RdPortConfig>>::_Vector_impl_data" }
%"struct.std::_Vector_base<(anonymous namespace)::RdPortConfig, std::allocator<(anonymous namespace)::RdPortConfig>>::_Vector_impl_data" = type { ptr, ptr, ptr }
%"class.std::vector.254" = type { %"struct.std::_Vector_base.255" }
%"struct.std::_Vector_base.255" = type { %"struct.std::_Vector_base<(anonymous namespace)::SharedClockConfig, std::allocator<(anonymous namespace)::SharedClockConfig>>::_Vector_impl" }
%"struct.std::_Vector_base<(anonymous namespace)::SharedClockConfig, std::allocator<(anonymous namespace)::SharedClockConfig>>::_Vector_impl" = type { %"struct.std::_Vector_base<(anonymous namespace)::SharedClockConfig, std::allocator<(anonymous namespace)::SharedClockConfig>>::_Vector_impl_data" }
%"struct.std::_Vector_base<(anonymous namespace)::SharedClockConfig, std::allocator<(anonymous namespace)::SharedClockConfig>>::_Vector_impl_data" = type { ptr, ptr, ptr }

; Function Attrs: mustprogress nounwind uwtable
define internal void @_ZNSt15__new_allocatorIN12_GLOBAL__N_19MemConfigEE10deallocateEPS1_m(ptr noundef nonnull align 1 dereferenceable(1) %0, ptr noundef %1, i64 noundef %2) #6 align 2 {
  %4 = alloca ptr, align 8
  %5 = alloca ptr, align 8
  %6 = alloca i64, align 8
  store ptr %0, ptr %4, align 8, !tbaa !1623
  store ptr %1, ptr %5, align 8, !tbaa !361
  store i64 %2, ptr %6, align 8, !tbaa !31
  %7 = load ptr, ptr %5, align 8, !tbaa !361
  %8 = load i64, ptr %6, align 8, !tbaa !31
  %9 = mul i64 %8, 160
  call void @_ZdlPvm(ptr noundef %7, i64 noundef %9) #24
  ret void
}

; Function Attrs: inlinehint mustprogress nounwind uwtable
define internal void @_ZSt8_DestroyIN12_GLOBAL__N_19MemConfigEEvPT_(ptr noundef %0) #7 {
  %2 = alloca ptr, align 8
  store ptr %0, ptr %2, align 8, !tbaa !361
  %3 = load ptr, ptr %2, align 8, !tbaa !361
  call void @_ZN12_GLOBAL__N_19MemConfigD2Ev(ptr noundef nonnull align 8 dereferenceable(160) %3) #3
  ret void
}

; Function Attrs: mustprogress uwtable
define internal void @_ZNSt16allocator_traitsISaIN12_GLOBAL__N_19MemConfigEEE10deallocateERS2_PS1_m(ptr noundef nonnull align 1 dereferenceable(1) %0, ptr noundef %1, i64 noundef %2) #4 align 2 {
  %4 = alloca ptr, align 8
  %5 = alloca ptr, align 8
  %6 = alloca i64, align 8
  store ptr %0, ptr %4, align 8, !tbaa !1619
  store ptr %1, ptr %5, align 8, !tbaa !361
  store i64 %2, ptr %6, align 8, !tbaa !31
  %7 = load ptr, ptr %4, align 8, !tbaa !1619
  %8 = load ptr, ptr %5, align 8, !tbaa !361
  %9 = load i64, ptr %6, align 8, !tbaa !31
  call void @_ZNSt15__new_allocatorIN12_GLOBAL__N_19MemConfigEE10deallocateEPS1_m(ptr noundef nonnull align 1 dereferenceable(1) %7, ptr noundef %8, i64 noundef %9)
  ret void
}

; Function Attrs: mustprogress uwtable
define internal void @_ZNSt12_Destroy_auxILb0EE9__destroyIPN12_GLOBAL__N_19MemConfigEEEvT_S5_(ptr noundef %0, ptr noundef %1) #4 align 2 {
  %3 = alloca ptr, align 8
  %4 = alloca ptr, align 8
  store ptr %0, ptr %3, align 8, !tbaa !361
  store ptr %1, ptr %4, align 8, !tbaa !361
  br label %5

5:                                                ; preds = %11, %2
  %6 = load ptr, ptr %3, align 8, !tbaa !361
  %7 = load ptr, ptr %4, align 8, !tbaa !361
  %8 = icmp ne ptr %6, %7
  br i1 %8, label %9, label %14

9:                                                ; preds = %5
  %10 = load ptr, ptr %3, align 8, !tbaa !361
  call void @_ZSt8_DestroyIN12_GLOBAL__N_19MemConfigEEvPT_(ptr noundef %10)
  br label %11

11:                                               ; preds = %9
  %12 = load ptr, ptr %3, align 8, !tbaa !361
  %13 = getelementptr inbounds nuw %"struct.(anonymous namespace)::MemConfig", ptr %12, i32 1
  store ptr %13, ptr %3, align 8, !tbaa !361
  br label %5, !llvm.loop !1885

14:                                               ; preds = %5
  ret void
}

; Function Attrs: mustprogress nounwind uwtable
define internal void @_ZNSt15__new_allocatorIN12_GLOBAL__N_19MemConfigEED2Ev(ptr noundef nonnull align 1 dereferenceable(1) %0) unnamed_addr #6 align 2 {
  %2 = alloca ptr, align 8
  store ptr %0, ptr %2, align 8, !tbaa !1623
  ret void
}

; Function Attrs: mustprogress uwtable
define internal void @_ZNSt12_Vector_baseIN12_GLOBAL__N_19MemConfigESaIS1_EE13_M_deallocateEPS1_m(ptr noundef nonnull align 8 dereferenceable(24) %0, ptr noundef %1, i64 noundef %2) #4 align 2 {
  %4 = alloca ptr, align 8
  %5 = alloca ptr, align 8
  %6 = alloca i64, align 8
  store ptr %0, ptr %4, align 8, !tbaa !1615
  store ptr %1, ptr %5, align 8, !tbaa !361
  store i64 %2, ptr %6, align 8, !tbaa !31
  %7 = load ptr, ptr %4, align 8
  %8 = load ptr, ptr %5, align 8, !tbaa !361
  %9 = icmp ne ptr %8, null
  br i1 %9, label %10, label %14

10:                                               ; preds = %3
  %11 = getelementptr inbounds nuw %"struct.std::_Vector_base.226", ptr %7, i32 0, i32 0
  %12 = load ptr, ptr %5, align 8, !tbaa !361
  %13 = load i64, ptr %6, align 8, !tbaa !31
  call void @_ZNSt16allocator_traitsISaIN12_GLOBAL__N_19MemConfigEEE10deallocateERS2_PS1_m(ptr noundef nonnull align 1 dereferenceable(1) %11, ptr noundef %12, i64 noundef %13)
  br label %14

14:                                               ; preds = %10, %3
  ret void
}

; Function Attrs: inlinehint mustprogress uwtable
define internal void @_ZSt8_DestroyIPN12_GLOBAL__N_19MemConfigEEvT_S3_(ptr noundef %0, ptr noundef %1) #9 {
  %3 = alloca ptr, align 8
  %4 = alloca ptr, align 8
  store ptr %0, ptr %3, align 8, !tbaa !361
  store ptr %1, ptr %4, align 8, !tbaa !361
  %5 = load ptr, ptr %3, align 8, !tbaa !361
  %6 = load ptr, ptr %4, align 8, !tbaa !361
  call void @_ZNSt12_Destroy_auxILb0EE9__destroyIPN12_GLOBAL__N_19MemConfigEEEvT_S5_(ptr noundef %5, ptr noundef %6)
  ret void
}

; Function Attrs: noinline noreturn nounwind uwtable
define linkonce_odr hidden void @__clang_call_terminate(ptr noundef %0) #11 comdat {
  %2 = call ptr @__cxa_begin_catch(ptr %0) #3
  call void @_ZSt9terminatev() #23
  unreachable
}

; Function Attrs: mustprogress nounwind uwtable
define internal void @_ZNSt12_Vector_baseIN12_GLOBAL__N_19MemConfigESaIS1_EED2Ev(ptr noundef nonnull align 8 dereferenceable(24) %0) unnamed_addr #6 align 2 personality ptr @__gxx_personality_v0 {
  %2 = alloca ptr, align 8
  store ptr %0, ptr %2, align 8, !tbaa !1615
  %3 = load ptr, ptr %2, align 8
  %4 = getelementptr inbounds nuw %"struct.std::_Vector_base.226", ptr %3, i32 0, i32 0
  %5 = getelementptr inbounds nuw %"struct.std::_Vector_base<(anonymous namespace)::MemConfig, std::allocator<(anonymous namespace)::MemConfig>>::_Vector_impl_data", ptr %4, i32 0, i32 0
  %6 = load ptr, ptr %5, align 8, !tbaa !360
  %7 = getelementptr inbounds nuw %"struct.std::_Vector_base.226", ptr %3, i32 0, i32 0
  %8 = getelementptr inbounds nuw %"struct.std::_Vector_base<(anonymous namespace)::MemConfig, std::allocator<(anonymous namespace)::MemConfig>>::_Vector_impl_data", ptr %7, i32 0, i32 2
  %9 = load ptr, ptr %8, align 8, !tbaa !1345
  %10 = getelementptr inbounds nuw %"struct.std::_Vector_base.226", ptr %3, i32 0, i32 0
  %11 = getelementptr inbounds nuw %"struct.std::_Vector_base<(anonymous namespace)::MemConfig, std::allocator<(anonymous namespace)::MemConfig>>::_Vector_impl_data", ptr %10, i32 0, i32 0
  %12 = load ptr, ptr %11, align 8, !tbaa !360
  %13 = ptrtoint ptr %9 to i64
  %14 = ptrtoint ptr %12 to i64
  %15 = sub i64 %13, %14
  %16 = sdiv exact i64 %15, 160
  invoke void @_ZNSt12_Vector_baseIN12_GLOBAL__N_19MemConfigESaIS1_EE13_M_deallocateEPS1_m(ptr noundef nonnull align 8 dereferenceable(24) %3, ptr noundef %6, i64 noundef %16)
          to label %17 unwind label %19

17:                                               ; preds = %1
  %18 = getelementptr inbounds nuw %"struct.std::_Vector_base.226", ptr %3, i32 0, i32 0
  call void @_ZNSt15__new_allocatorIN12_GLOBAL__N_19MemConfigEED2Ev(ptr noundef nonnull align 8 dereferenceable(24) %18) #3
  ret void

19:                                               ; preds = %1
  %20 = landingpad { ptr, i32 }
          catch ptr null
  %21 = extractvalue { ptr, i32 } %20, 0
  call void @__clang_call_terminate(ptr %21) #23
  unreachable
}

; Function Attrs: inlinehint mustprogress uwtable
define internal void @_ZSt8_DestroyIPN12_GLOBAL__N_19MemConfigES1_EvT_S3_RSaIT0_E(ptr noundef %0, ptr noundef %1, ptr noundef nonnull align 1 dereferenceable(1) %2) #9 {
  %4 = alloca ptr, align 8
  %5 = alloca ptr, align 8
  %6 = alloca ptr, align 8
  store ptr %0, ptr %4, align 8, !tbaa !361
  store ptr %1, ptr %5, align 8, !tbaa !361
  store ptr %2, ptr %6, align 8, !tbaa !1619
  %7 = load ptr, ptr %4, align 8, !tbaa !361
  %8 = load ptr, ptr %5, align 8, !tbaa !361
  call void @_ZSt8_DestroyIPN12_GLOBAL__N_19MemConfigEEvT_S3_(ptr noundef %7, ptr noundef %8)
  ret void
}

; Function Attrs: mustprogress nounwind uwtable
define internal noundef nonnull align 1 dereferenceable(1) ptr @_ZNSt12_Vector_baseIN12_GLOBAL__N_19MemConfigESaIS1_EE19_M_get_Tp_allocatorEv(ptr noundef nonnull align 8 dereferenceable(24) %0) #6 align 2 {
  %2 = alloca ptr, align 8
  store ptr %0, ptr %2, align 8, !tbaa !1615
  %3 = load ptr, ptr %2, align 8
  %4 = getelementptr inbounds nuw %"struct.std::_Vector_base.226", ptr %3, i32 0, i32 0
  ret ptr %4
}

; Function Attrs: mustprogress nounwind uwtable
define internal void @_ZNSt6vectorIN12_GLOBAL__N_19MemConfigESaIS1_EED2Ev(ptr noundef nonnull align 8 dereferenceable(24) %0) unnamed_addr #6 align 2 personality ptr @__gxx_personality_v0 {
  %2 = alloca ptr, align 8
  store ptr %0, ptr %2, align 8, !tbaa !358
  %3 = load ptr, ptr %2, align 8
  %4 = getelementptr inbounds nuw %"struct.std::_Vector_base.226", ptr %3, i32 0, i32 0
  %5 = getelementptr inbounds nuw %"struct.std::_Vector_base<(anonymous namespace)::MemConfig, std::allocator<(anonymous namespace)::MemConfig>>::_Vector_impl_data", ptr %4, i32 0, i32 0
  %6 = load ptr, ptr %5, align 8, !tbaa !360
  %7 = getelementptr inbounds nuw %"struct.std::_Vector_base.226", ptr %3, i32 0, i32 0
  %8 = getelementptr inbounds nuw %"struct.std::_Vector_base<(anonymous namespace)::MemConfig, std::allocator<(anonymous namespace)::MemConfig>>::_Vector_impl_data", ptr %7, i32 0, i32 1
  %9 = load ptr, ptr %8, align 8, !tbaa !1344
  %10 = call noundef nonnull align 1 dereferenceable(1) ptr @_ZNSt12_Vector_baseIN12_GLOBAL__N_19MemConfigESaIS1_EE19_M_get_Tp_allocatorEv(ptr noundef nonnull align 8 dereferenceable(24) %3) #3
  invoke void @_ZSt8_DestroyIPN12_GLOBAL__N_19MemConfigES1_EvT_S3_RSaIT0_E(ptr noundef %6, ptr noundef %9, ptr noundef nonnull align 1 dereferenceable(1) %10)
          to label %11 unwind label %12

11:                                               ; preds = %1
  call void @_ZNSt12_Vector_baseIN12_GLOBAL__N_19MemConfigESaIS1_EED2Ev(ptr noundef nonnull align 8 dereferenceable(24) %3) #3
  ret void

12:                                               ; preds = %1
  %13 = landingpad { ptr, i32 }
          catch ptr null
  %14 = extractvalue { ptr, i32 } %13, 0
  call void @__clang_call_terminate(ptr %14) #23
  unreachable
}